; Function Attrs: mustprogress uwtable
define noundef i64 @_ZNK32pxrInternal_v0_24__pxrReserved__8Usd_Clip24GetNumTimeSamplesForPathERKNS_7SdfPathE(ptr noundef nonnull align 8 dereferenceable(208) %0, ptr noundef nonnull align 4 dereferenceable(8) %1) local_unnamed_addr #0 align 2 personality ptr @__gxx_personality_v0 {
  %3 = alloca %"class.std::set.134", align 8
  call void @_ZNK32pxrInternal_v0_24__pxrReserved__8Usd_Clip22ListTimeSamplesForPathERKNS_7SdfPathE(ptr dead_on_unwind nonnull writable sret(%"class.std::set.134") align 8 %3, ptr noundef nonnull align 8 dereferenceable(208) %0, ptr noundef nonnull align 4 dereferenceable(8) %1)
  %4 = getelementptr inbounds nuw i8, ptr %3, i64 40
  %5 = load i64, ptr %4, align 8
  %6 = getelementptr inbounds nuw i8, ptr %3, i64 16
  %7 = load ptr, ptr %6, align 8
  invoke void @_ZNSt8_Rb_treeIddSt9_IdentityIdESt4lessIdESaIdEE8_M_eraseEPSt13_Rb_tree_nodeIdE(ptr noundef nonnull align 8 dereferenceable(48) %3, ptr noundef %7)
          to label %_ZNSt3setIdSt4lessIdESaIdEED2Ev.exit unwind label %8

8:                                                ; preds = %2
  %9 = landingpad { ptr, i32 }
          catch ptr null
  %10 = extractvalue { ptr, i32 } %9, 0
  call void @__clang_call_terminate(ptr %10) #19
  unreachable

_ZNSt3setIdSt4lessIdESaIdEED2Ev.exit:             ; preds = %2
  ret i64 %5
}